target datalayout = "e-m:e-p270:32:32-p271:32:32-p272:64:64-i64:64-i128:128-f80:128-n8:16:32:64-S128"
target triple = "x86_64-pc-linux-gnu"

%struct.stb_vorbis = type { i32, i32, i32, i32, i32, ptr, i32, ptr, ptr, i32, i32, ptr, ptr, ptr, i32, i8, i32, %struct.ProbedPage, %struct.ProbedPage, %struct.stb_vorbis_alloc, i32, i32, i32, i32, [2 x i32], i32, i32, i32, ptr, i32, [64 x i16], ptr, i32, [64 x i16], ptr, i32, ptr, i32, [64 x %struct.Mode], i32, [16 x ptr], [16 x ptr], [16 x ptr], i32, [16 x ptr], i32, i32, [2 x ptr], [2 x ptr], [2 x ptr], [2 x ptr], [2 x ptr], i32, i32, i32, [255 x i8], i8, i8, i8, i32, i32, i32, i32, i32, i32, i32, i32, i32, i32, i32, [4 x %struct.CRCscan], i32, i32 }
%struct.ProbedPage = type { i32, i32, i32 }
%struct.stb_vorbis_alloc = type { ptr, i32 }
%struct.Mode = type { i8, i8, i16, i16 }
%struct.CRCscan = type { i32, i32, i32, i32, i32 }

; Function Attrs: nounwind uwtable
define internal i32 @error(ptr noundef %0, i32 noundef %1) #0 {
  %3 = alloca ptr, align 8
  %4 = alloca i32, align 4
  store ptr %0, ptr %3, align 8
  store i32 %1, ptr %4, align 4
  %5 = load i32, ptr %4, align 4
  %6 = load ptr, ptr %3, align 8
  %7 = getelementptr inbounds nuw %struct.stb_vorbis, ptr %6, i32 0, i32 23
  store i32 %5, ptr %7, align 4
  %8 = load ptr, ptr %3, align 8
  %9 = getelementptr inbounds nuw %struct.stb_vorbis, ptr %8, i32 0, i32 22
  %10 = load i32, ptr %9, align 8
  %11 = icmp ne i32 %10, 0
  br i1 %11, label %19, label %12

12:                                               ; preds = %2
  %13 = load i32, ptr %4, align 4
  %14 = icmp ne i32 %13, 1
  br i1 %14, label %15, label %19

15:                                               ; preds = %12
  %16 = load i32, ptr %4, align 4
  %17 = load ptr, ptr %3, align 8
  %18 = getelementptr inbounds nuw %struct.stb_vorbis, ptr %17, i32 0, i32 23
  store i32 %16, ptr %18, align 4
  br label %19

19:                                               ; preds = %15, %12, %2
  ret i32 0
}

; Function Attrs: nounwind uwtable
define hidden i32 @stb_vorbis_get_frame_float(ptr noundef %0, ptr noundef %1, ptr noundef %2) #0 {
  %4 = alloca i32, align 4
  %5 = alloca ptr, align 8
  %6 = alloca ptr, align 8
  %7 = alloca ptr, align 8
  %8 = alloca i32, align 4
  %9 = alloca i32, align 4
  %10 = alloca i32, align 4
  %11 = alloca i32, align 4
  %12 = alloca i32, align 4
  store ptr %0, ptr %5, align 8
  store ptr %1, ptr %6, align 8
  store ptr %2, ptr %7, align 8
  call void @llvm.lifetime.start.p0(i64 4, ptr %8) #21
  call void @llvm.lifetime.start.p0(i64 4, ptr %9) #21
  call void @llvm.lifetime.start.p0(i64 4, ptr %10) #21
  call void @llvm.lifetime.start.p0(i64 4, ptr %11) #21
  %13 = load ptr, ptr %5, align 8
  %14 = getelementptr inbounds nuw %struct.stb_vorbis, ptr %13, i32 0, i32 15
  %15 = load i8, ptr %14, align 4
  %16 = icmp ne i8 %15, 0
  br i1 %16, label %17, label %20

17:                                               ; preds = %3
  %18 = load ptr, ptr %5, align 8
  %19 = call i32 @error(ptr noundef %18, i32 noundef 2)
  store i32 %19, ptr %4, align 4
  store i32 1, ptr %12, align 4
  br label %85

20:                                               ; preds = %3
  %21 = load ptr, ptr %5, align 8
  %22 = call i32 @vorbis_decode_packet(ptr noundef %21, ptr noundef %8, ptr noundef %10, ptr noundef %9)
  %23 = icmp ne i32 %22, 0
  br i1 %23, label %29, label %24

24:                                               ; preds = %20
  %25 = load ptr, ptr %5, align 8
  %26 = getelementptr inbounds nuw %struct.stb_vorbis, ptr %25, i32 0, i32 72
  store i32 0, ptr %26, align 8
  %27 = load ptr, ptr %5, align 8
  %28 = getelementptr inbounds nuw %struct.stb_vorbis, ptr %27, i32 0, i32 71
  store i32 0, ptr %28, align 4
  store i32 0, ptr %4, align 4
  store i32 1, ptr %12, align 4
  br label %85

29:                                               ; preds = %20
  %30 = load ptr, ptr %5, align 8
  %31 = load i32, ptr %8, align 4
  %32 = load i32, ptr %10, align 4
  %33 = load i32, ptr %9, align 4
  %34 = call i32 @vorbis_finish_frame(ptr noundef %30, i32 noundef %31, i32 noundef %32, i32 noundef %33)
  store i32 %34, ptr %8, align 4
  store i32 0, ptr %11, align 4
  br label %35

35:                                               ; preds = %56, %29
  %36 = load i32, ptr %11, align 4
  %37 = load ptr, ptr %5, align 8
  %38 = getelementptr inbounds nuw %struct.stb_vorbis, ptr %37, i32 0, i32 1
  %39 = load i32, ptr %38, align 4
  %40 = icmp slt i32 %36, %39
  br i1 %40, label %41, label %59

41:                                               ; preds = %35
  %42 = load ptr, ptr %5, align 8
  %43 = getelementptr inbounds nuw %struct.stb_vorbis, ptr %42, i32 0, i32 40
  %44 = load i32, ptr %11, align 4
  %45 = sext i32 %44 to i64
  %46 = getelementptr inbounds [16 x ptr], ptr %43, i64 0, i64 %45
  %47 = load ptr, ptr %46, align 8
  %48 = load i32, ptr %10, align 4
  %49 = sext i32 %48 to i64
  %50 = getelementptr inbounds float, ptr %47, i64 %49
  %51 = load ptr, ptr %5, align 8
  %52 = getelementptr inbounds nuw %struct.stb_vorbis, ptr %51, i32 0, i32 41
  %53 = load i32, ptr %11, align 4
  %54 = sext i32 %53 to i64
  %55 = getelementptr inbounds [16 x ptr], ptr %52, i64 0, i64 %54
  store ptr %50, ptr %55, align 8
  br label %56

56:                                               ; preds = %41
  %57 = load i32, ptr %11, align 4
  %58 = add nsw i32 %57, 1
  store i32 %58, ptr %11, align 4
  br label %35

59:                                               ; preds = %35
  %60 = load i32, ptr %10, align 4
  %61 = load ptr, ptr %5, align 8
  %62 = getelementptr inbounds nuw %struct.stb_vorbis, ptr %61, i32 0, i32 71
  store i32 %60, ptr %62, align 4
  %63 = load i32, ptr %10, align 4
  %64 = load i32, ptr %8, align 4
  %65 = add nsw i32 %63, %64
  %66 = load ptr, ptr %5, align 8
  %67 = getelementptr inbounds nuw %struct.stb_vorbis, ptr %66, i32 0, i32 72
  store i32 %65, ptr %67, align 8
  %68 = load ptr, ptr %6, align 8
  %69 = icmp ne ptr %68, null
  br i1 %69, label %70, label %75

70:                                               ; preds = %59
  %71 = load ptr, ptr %5, align 8
  %72 = getelementptr inbounds nuw %struct.stb_vorbis, ptr %71, i32 0, i32 1
  %73 = load i32, ptr %72, align 4
  %74 = load ptr, ptr %6, align 8
  store i32 %73, ptr %74, align 4
  br label %75

75:                                               ; preds = %70, %59
  %76 = load ptr, ptr %7, align 8
  %77 = icmp ne ptr %76, null
  br i1 %77, label %78, label %83

78:                                               ; preds = %75
  %79 = load ptr, ptr %5, align 8
  %80 = getelementptr inbounds nuw %struct.stb_vorbis, ptr %79, i32 0, i32 41
  %81 = getelementptr inbounds [16 x ptr], ptr %80, i64 0, i64 0
  %82 = load ptr, ptr %7, align 8
  store ptr %81, ptr %82, align 8
  br label %83

83:                                               ; preds = %78, %75
  %84 = load i32, ptr %8, align 4
  store i32 %84, ptr %4, align 4
  store i32 1, ptr %12, align 4
  br label %85

85:                                               ; preds = %83, %24, %17
  call void @llvm.lifetime.end.p0(i64 4, ptr %11) #21
  call void @llvm.lifetime.end.p0(i64 4, ptr %10) #21
  call void @llvm.lifetime.end.p0(i64 4, ptr %9) #21
  call void @llvm.lifetime.end.p0(i64 4, ptr %8) #21
  %86 = load i32, ptr %4, align 4
  ret i32 %86
}

; Function Attrs: nounwind uwtable
define hidden i32 @stb_vorbis_seek(ptr noundef %0, i32 noundef %1) #0 {
  %3 = alloca i32, align 4
  %4 = alloca ptr, align 8
  %5 = alloca i32, align 4
  %6 = alloca i32, align 4
  %7 = alloca i32, align 4
  store ptr %0, ptr %4, align 8
  store i32 %1, ptr %5, align 4
  %8 = load ptr, ptr %4, align 8
  %9 = load i32, ptr %5, align 4
  %10 = call i32 @stb_vorbis_seek_frame(ptr noundef %8, i32 noundef %9)
  %11 = icmp ne i32 %10, 0
  br i1 %11, label %13, label %12

12:                                               ; preds = %2
  store i32 0, ptr %3, align 4
  br label %33

13:                                               ; preds = %2
  %14 = load i32, ptr %5, align 4
  %15 = load ptr, ptr %4, align 8
  %16 = getelementptr inbounds nuw %struct.stb_vorbis, ptr %15, i32 0, i32 45
  %17 = load i32, ptr %16, align 8
  %18 = icmp ne i32 %14, %17
  br i1 %18, label %19, label %32

19:                                               ; preds = %13
  call void @llvm.lifetime.start.p0(i64 4, ptr %6) #21
  call void @llvm.lifetime.start.p0(i64 4, ptr %7) #21
  %20 = load ptr, ptr %4, align 8
  %21 = getelementptr inbounds nuw %struct.stb_vorbis, ptr %20, i32 0, i32 45
  %22 = load i32, ptr %21, align 8
  store i32 %22, ptr %7, align 4
  %23 = load ptr, ptr %4, align 8
  %24 = call i32 @stb_vorbis_get_frame_float(ptr noundef %23, ptr noundef %6, ptr noundef null)
  %25 = load i32, ptr %5, align 4
  %26 = load i32, ptr %7, align 4
  %27 = sub i32 %25, %26
  %28 = load ptr, ptr %4, align 8
  %29 = getelementptr inbounds nuw %struct.stb_vorbis, ptr %28, i32 0, i32 71
  %30 = load i32, ptr %29, align 4
  %31 = add i32 %30, %27
  store i32 %31, ptr %29, align 4
  call void @llvm.lifetime.end.p0(i64 4, ptr %7) #21
  call void @llvm.lifetime.end.p0(i64 4, ptr %6) #21
  br label %32

32:                                               ; preds = %19, %13
  store i32 1, ptr %3, align 4
  br label %33

33:                                               ; preds = %32, %12
  %34 = load i32, ptr %3, align 4
  ret i32 %34
}