; Function Attrs: nofree nounwind uwtable
define hidden range(i32 0, 2) i32 @stb_vorbis_seek(ptr noundef %0, i32 noundef %1) local_unnamed_addr #8 {
  %3 = alloca i32, align 4
  %4 = alloca i32, align 4
  %5 = alloca i32, align 4
  %6 = tail call i32 @stb_vorbis_seek_frame(ptr noundef %0, i32 noundef %1)
  %.not = icmp eq i32 %6, 0
  br i1 %.not, label %41, label %7

7:                                                ; preds = %2
  %8 = getelementptr inbounds nuw i8, ptr %0, i64 1408
  %9 = load i32, ptr %8, align 8
  %.not10 = icmp eq i32 %1, %9
  br i1 %.not10, label %41, label %10

10:                                               ; preds = %7
  call void @llvm.lifetime.start.p0(i64 4, ptr nonnull %3) #72
  call void @llvm.lifetime.start.p0(i64 4, ptr nonnull %4) #72
  call void @llvm.lifetime.start.p0(i64 4, ptr nonnull %5) #72
  %11 = getelementptr inbounds nuw i8, ptr %0, i64 92
  %12 = load i8, ptr %11, align 4
  %.not.i = icmp eq i8 %12, 0
  br i1 %.not.i, label %15, label %13

13:                                               ; preds = %10
  %14 = getelementptr inbounds nuw i8, ptr %0, i64 156
  store i32 2, ptr %14, align 4
  %.phi.trans.insert = getelementptr inbounds nuw i8, ptr %0, i64 1892
  %.pre = load i32, ptr %.phi.trans.insert, align 4
  br label %stb_vorbis_get_frame_float.exit

15:                                               ; preds = %10
  %16 = call fastcc i32 @vorbis_decode_packet(ptr noundef nonnull %0, ptr noundef %3, ptr noundef %5, ptr noundef %4)
  %.not24.i = icmp eq i32 %16, 0
  br i1 %.not24.i, label %17, label %19

17:                                               ; preds = %15
  %18 = getelementptr inbounds nuw i8, ptr %0, i64 1896
  store i32 0, ptr %18, align 8
  br label %stb_vorbis_get_frame_float.exit

19:                                               ; preds = %15
  %20 = load i32, ptr %3, align 4
  %21 = load i32, ptr %5, align 4
  %22 = load i32, ptr %4, align 4
  %23 = tail call fastcc i32 @vorbis_finish_frame(ptr noundef nonnull %0, i32 noundef %20, i32 noundef %21, i32 noundef %22)
  %24 = getelementptr inbounds nuw i8, ptr %0, i64 4
  %25 = load i32, ptr %24, align 4
  %26 = icmp sgt i32 %25, 0
  br i1 %26, label %.lr.ph.i, label %._crit_edge.i

.lr.ph.i:                                         ; preds = %19
  %27 = getelementptr inbounds nuw i8, ptr %0, i64 888
  %28 = sext i32 %21 to i64
  %29 = getelementptr inbounds nuw i8, ptr %0, i64 1016
  %wide.trip.count.i = zext nneg i32 %25 to i64
  br label %30

30:                                               ; preds = %30, %.lr.ph.i
  %indvars.iv.i = phi i64 [ 0, %.lr.ph.i ], [ %indvars.iv.next.i, %30 ]
  %31 = getelementptr inbounds nuw [16 x ptr], ptr %27, i64 0, i64 %indvars.iv.i
  %32 = load ptr, ptr %31, align 8
  %33 = getelementptr inbounds float, ptr %32, i64 %28
  %34 = getelementptr inbounds nuw [16 x ptr], ptr %29, i64 0, i64 %indvars.iv.i
  store ptr %33, ptr %34, align 8
  %indvars.iv.next.i = add nuw nsw i64 %indvars.iv.i, 1
  %exitcond.not.i = icmp eq i64 %indvars.iv.next.i, %wide.trip.count.i
  br i1 %exitcond.not.i, label %._crit_edge.i, label %30

._crit_edge.i:                                    ; preds = %30, %19
  %35 = add nsw i32 %23, %21
  %36 = getelementptr inbounds nuw i8, ptr %0, i64 1896
  store i32 %35, ptr %36, align 8
  br label %stb_vorbis_get_frame_float.exit

stb_vorbis_get_frame_float.exit:                  ; preds = %13, %17, %._crit_edge.i
  %37 = phi i32 [ %.pre, %13 ], [ 0, %17 ], [ %21, %._crit_edge.i ]
  call void @llvm.lifetime.end.p0(i64 4, ptr nonnull %5) #72
  call void @llvm.lifetime.end.p0(i64 4, ptr nonnull %4) #72
  call void @llvm.lifetime.end.p0(i64 4, ptr nonnull %3) #72
  %38 = sub i32 %1, %9
  %39 = getelementptr inbounds nuw i8, ptr %0, i64 1892
  %40 = add i32 %38, %37
  store i32 %40, ptr %39, align 4
  br label %41

41:                                               ; preds = %7, %stb_vorbis_get_frame_float.exit, %2
  %.0 = phi i32 [ 0, %2 ], [ 1, %stb_vorbis_get_frame_float.exit ], [ 1, %7 ]
  ret i32 %.0
}